; Function Attrs: noinline norecurse nounwind uwtable
define internal void @_ZNK5faiss9HeapArrayINS_4CMaxIilEEE16per_line_extremaEPiPl.omp_outlined(ptr noalias noundef readonly captures(none) %0, ptr noalias readnone captures(none) %1, ptr noundef readonly captures(none) %2, ptr noundef nonnull readonly align 8 captures(none) dereferenceable(8) %3, ptr noundef nonnull readonly align 8 captures(none) dereferenceable(8) %4) #6 {
  %6 = alloca i64, align 8
  %7 = alloca i64, align 8
  %8 = alloca i64, align 8
  %9 = alloca i32, align 4
  %10 = load i64, ptr %2, align 8, !tbaa !118
  %.not = icmp eq i64 %10, 0
  br i1 %.not, label %97, label %11

11:                                               ; preds = %5
  %12 = add i64 %10, -1
  call void @llvm.lifetime.start.p0(i64 8, ptr nonnull %6) #3
  store i64 0, ptr %6, align 8, !tbaa !15
  call void @llvm.lifetime.start.p0(i64 8, ptr nonnull %7) #3
  store i64 %12, ptr %7, align 8, !tbaa !15
  call void @llvm.lifetime.start.p0(i64 8, ptr nonnull %8) #3
  store i64 1, ptr %8, align 8, !tbaa !15
  call void @llvm.lifetime.start.p0(i64 4, ptr nonnull %9) #3
  store i32 0, ptr %9, align 4, !tbaa !16
  %13 = load i32, ptr %0, align 4, !tbaa !16
  call void @__kmpc_for_static_init_8u(ptr nonnull @1, i32 %13, i32 34, ptr nonnull %9, ptr nonnull %6, ptr nonnull %7, ptr nonnull %8, i64 1, i64 1)
  %14 = load i64, ptr %7, align 8, !tbaa !15
  %15 = call i64 @llvm.umin.i64(i64 %14, i64 %12)
  store i64 %15, ptr %7, align 8, !tbaa !15
  %16 = load i64, ptr %6, align 8, !tbaa !15
  %.not104 = icmp ugt i64 %16, %15
  br i1 %.not104, label %._crit_edge47, label %.lr.ph46

.lr.ph46:                                         ; preds = %11
  %17 = getelementptr inbounds nuw i8, ptr %2, i64 24
  %18 = load ptr, ptr %17, align 8, !tbaa !114
  %19 = getelementptr inbounds nuw i8, ptr %2, i64 8
  %20 = load ptr, ptr %3, align 8, !tbaa !75
  %.not37 = icmp eq ptr %20, null
  %21 = load ptr, ptr %4, align 8, !tbaa !30
  %.not38 = icmp eq ptr %21, null
  br i1 %.not38, label %.lr.ph46.split.us, label %.lr.ph46.split

.lr.ph46.split.us:                                ; preds = %.lr.ph46
  %22 = load i64, ptr %19, align 8, !tbaa !116
  %.not81 = icmp eq i64 %22, 0
  br i1 %.not81, label %.lr.ph46.split.us.split, label %.lr.ph46.split.us.split.us

.lr.ph46.split.us.split.us:                       ; preds = %.lr.ph46.split.us
  br i1 %.not37, label %._crit_edge47, label %.lr.ph.us.us

.lr.ph.us.us:                                     ; preds = %.lr.ph46.split.us.split.us, %._crit_edge.us.us
  %.03044.us.us = phi i64 [ %30, %._crit_edge.us.us ], [ %16, %.lr.ph46.split.us.split.us ]
  %23 = mul i64 %22, %.03044.us.us
  %24 = getelementptr inbounds nuw i32, ptr %18, i64 %23
  br label %25

25:                                               ; preds = %.lr.ph.us.us, %25
  %.042.us.us = phi i64 [ 0, %.lr.ph.us.us ], [ %28, %25 ]
  %.03141.us.us = phi i32 [ -2147483648, %.lr.ph.us.us ], [ %spec.select39.us.us, %25 ]
  %26 = getelementptr inbounds nuw i32, ptr %24, i64 %.042.us.us
  %27 = load i32, ptr %26, align 4, !tbaa !16
  %spec.select39.us.us = call i32 @llvm.smax.i32(i32 %27, i32 %.03141.us.us)
  %28 = add nuw i64 %.042.us.us, 1
  %exitcond92.not = icmp eq i64 %28, %22
  br i1 %exitcond92.not, label %._crit_edge.us.us, label %25, !llvm.loop !131

._crit_edge.us.us:                                ; preds = %25
  %29 = getelementptr inbounds i32, ptr %20, i64 %.03044.us.us
  store i32 %spec.select39.us.us, ptr %29, align 4, !tbaa !16
  %30 = add nuw i64 %.03044.us.us, 1
  %31 = icmp ult i64 %.03044.us.us, %15
  br i1 %31, label %.lr.ph.us.us, label %._crit_edge47

.lr.ph46.split.us.split:                          ; preds = %.lr.ph46.split.us
  br i1 %.not37, label %._crit_edge47, label %.lr.ph46.split.us.split.split

.lr.ph46.split.us.split.split:                    ; preds = %.lr.ph46.split.us.split, %.lr.ph46.split.us.split.split
  %.03044.us = phi i64 [ %33, %.lr.ph46.split.us.split.split ], [ %16, %.lr.ph46.split.us.split ]
  %32 = getelementptr inbounds i32, ptr %20, i64 %.03044.us
  store i32 -2147483648, ptr %32, align 4, !tbaa !16
  %33 = add nuw i64 %.03044.us, 1
  %34 = icmp ult i64 %.03044.us, %15
  br i1 %34, label %.lr.ph46.split.us.split.split, label %._crit_edge47

.lr.ph46.split:                                   ; preds = %.lr.ph46
  %35 = getelementptr inbounds nuw i8, ptr %2, i64 16
  %36 = load ptr, ptr %35, align 8, !tbaa !117
  %.fr73 = freeze ptr %36
  %.not74 = icmp eq ptr %.fr73, null
  br i1 %.not74, label %.lr.ph46.split.split.us, label %.lr.ph46.split.split

.lr.ph46.split.split.us:                          ; preds = %.lr.ph46.split
  br i1 %.not37, label %.lr.ph46.split.split.us.split.us, label %.lr.ph46.split.split.us.split

.lr.ph46.split.split.us.split.us:                 ; preds = %.lr.ph46.split.split.us, %._crit_edge.us57.us
  %.03044.us48.us = phi i64 [ %41, %._crit_edge.us57.us ], [ %16, %.lr.ph46.split.split.us ]
  %37 = load i64, ptr %19, align 8, !tbaa !116
  %38 = mul i64 %37, %.03044.us48.us
  %39 = getelementptr inbounds nuw i32, ptr %18, i64 %38
  %.not76 = icmp eq i64 %37, 0
  br i1 %.not76, label %._crit_edge.us57.us, label %.lr.ph.us56.us

._crit_edge.us57.us:                              ; preds = %.lr.ph.us56.us, %.lr.ph46.split.split.us.split.us
  %.032.lcssa.us49.us = phi i64 [ -1, %.lr.ph46.split.split.us.split.us ], [ %spec.select.us54.us, %.lr.ph.us56.us ]
  %40 = getelementptr inbounds i64, ptr %21, i64 %.03044.us48.us
  store i64 %.032.lcssa.us49.us, ptr %40, align 8, !tbaa !15
  %41 = add nuw i64 %.03044.us48.us, 1
  %42 = load i64, ptr %7, align 8, !tbaa !15
  %43 = add i64 %42, 1
  %44 = icmp ult i64 %41, %43
  br i1 %44, label %.lr.ph46.split.split.us.split.us, label %._crit_edge47

.lr.ph.us56.us:                                   ; preds = %.lr.ph46.split.split.us.split.us, %.lr.ph.us56.us
  %.042.us51.us = phi i64 [ %48, %.lr.ph.us56.us ], [ 0, %.lr.ph46.split.split.us.split.us ]
  %.03141.us52.us = phi i32 [ %spec.select39.us55.us, %.lr.ph.us56.us ], [ -2147483648, %.lr.ph46.split.split.us.split.us ]
  %.03240.us53.us = phi i64 [ %spec.select.us54.us, %.lr.ph.us56.us ], [ -1, %.lr.ph46.split.split.us.split.us ]
  %45 = getelementptr inbounds nuw i32, ptr %39, i64 %.042.us51.us
  %46 = load i32, ptr %45, align 4, !tbaa !16
  %47 = icmp sgt i32 %46, %.03141.us52.us
  %spec.select.us54.us = select i1 %47, i64 %.042.us51.us, i64 %.03240.us53.us
  %spec.select39.us55.us = call i32 @llvm.smax.i32(i32 %46, i32 %.03141.us52.us)
  %48 = add nuw i64 %.042.us51.us, 1
  %exitcond91.not = icmp eq i64 %48, %37
  br i1 %exitcond91.not, label %._crit_edge.us57.us, label %.lr.ph.us56.us, !llvm.loop !131

.lr.ph46.split.split.us.split:                    ; preds = %.lr.ph46.split.split.us, %._crit_edge.us57
  %.03044.us48 = phi i64 [ %54, %._crit_edge.us57 ], [ %16, %.lr.ph46.split.split.us ]
  %49 = load i64, ptr %19, align 8, !tbaa !116
  %50 = mul i64 %49, %.03044.us48
  %51 = getelementptr inbounds nuw i32, ptr %18, i64 %50
  %.not75 = icmp eq i64 %49, 0
  br i1 %.not75, label %._crit_edge.us57, label %.lr.ph.us56

._crit_edge.us57:                                 ; preds = %.lr.ph.us56, %.lr.ph46.split.split.us.split
  %.032.lcssa.us49 = phi i64 [ -1, %.lr.ph46.split.split.us.split ], [ %spec.select.us54, %.lr.ph.us56 ]
  %.031.lcssa.us50 = phi i32 [ -2147483648, %.lr.ph46.split.split.us.split ], [ %spec.select39.us55, %.lr.ph.us56 ]
  %52 = getelementptr inbounds i32, ptr %20, i64 %.03044.us48
  store i32 %.031.lcssa.us50, ptr %52, align 4, !tbaa !16
  %53 = getelementptr inbounds i64, ptr %21, i64 %.03044.us48
  store i64 %.032.lcssa.us49, ptr %53, align 8, !tbaa !15
  %54 = add nuw i64 %.03044.us48, 1
  %55 = load i64, ptr %7, align 8, !tbaa !15
  %56 = add i64 %55, 1
  %57 = icmp ult i64 %54, %56
  br i1 %57, label %.lr.ph46.split.split.us.split, label %._crit_edge47

.lr.ph.us56:                                      ; preds = %.lr.ph46.split.split.us.split, %.lr.ph.us56
  %.042.us51 = phi i64 [ %61, %.lr.ph.us56 ], [ 0, %.lr.ph46.split.split.us.split ]
  %.03141.us52 = phi i32 [ %spec.select39.us55, %.lr.ph.us56 ], [ -2147483648, %.lr.ph46.split.split.us.split ]
  %.03240.us53 = phi i64 [ %spec.select.us54, %.lr.ph.us56 ], [ -1, %.lr.ph46.split.split.us.split ]
  %58 = getelementptr inbounds nuw i32, ptr %51, i64 %.042.us51
  %59 = load i32, ptr %58, align 4, !tbaa !16
  %60 = icmp sgt i32 %59, %.03141.us52
  %spec.select.us54 = select i1 %60, i64 %.042.us51, i64 %.03240.us53
  %spec.select39.us55 = call i32 @llvm.smax.i32(i32 %59, i32 %.03141.us52)
  %61 = add nuw i64 %.042.us51, 1
  %exitcond90.not = icmp eq i64 %61, %49
  br i1 %exitcond90.not, label %._crit_edge.us57, label %.lr.ph.us56, !llvm.loop !131

.lr.ph46.split.split:                             ; preds = %.lr.ph46.split
  br i1 %.not37, label %.lr.ph46.split.split.split.us, label %.lr.ph46.split.split.split

.lr.ph46.split.split.split.us:                    ; preds = %.lr.ph46.split.split, %._crit_edge.us69.thread
  %.03044.us60 = phi i64 [ %70, %._crit_edge.us69.thread ], [ %16, %.lr.ph46.split.split ]
  %62 = load i64, ptr %19, align 8, !tbaa !116
  %63 = mul i64 %62, %.03044.us60
  %64 = getelementptr inbounds nuw i32, ptr %18, i64 %63
  %.not79 = icmp eq i64 %62, 0
  br i1 %.not79, label %._crit_edge.us69.thread, label %.lr.ph.us68

._crit_edge.us69:                                 ; preds = %.lr.ph.us68
  %.not80 = icmp eq i64 %spec.select.us66, -1
  br i1 %.not80, label %._crit_edge.us69.thread, label %65

65:                                               ; preds = %._crit_edge.us69
  %66 = getelementptr i64, ptr %.fr73, i64 %63
  %67 = getelementptr i64, ptr %66, i64 %spec.select.us66
  %68 = load i64, ptr %67, align 8, !tbaa !15
  br label %._crit_edge.us69.thread

._crit_edge.us69.thread:                          ; preds = %.lr.ph46.split.split.split.us, %._crit_edge.us69, %65
  %.sink = phi i64 [ %68, %65 ], [ -1, %._crit_edge.us69 ], [ -1, %.lr.ph46.split.split.split.us ]
  %69 = getelementptr inbounds i64, ptr %21, i64 %.03044.us60
  store i64 %.sink, ptr %69, align 8, !tbaa !15
  %70 = add nuw i64 %.03044.us60, 1
  %71 = load i64, ptr %7, align 8, !tbaa !15
  %72 = add i64 %71, 1
  %73 = icmp ult i64 %70, %72
  br i1 %73, label %.lr.ph46.split.split.split.us, label %._crit_edge47

.lr.ph.us68:                                      ; preds = %.lr.ph46.split.split.split.us, %.lr.ph.us68
  %.042.us63 = phi i64 [ %77, %.lr.ph.us68 ], [ 0, %.lr.ph46.split.split.split.us ]
  %.03141.us64 = phi i32 [ %spec.select39.us67, %.lr.ph.us68 ], [ -2147483648, %.lr.ph46.split.split.split.us ]
  %.03240.us65 = phi i64 [ %spec.select.us66, %.lr.ph.us68 ], [ -1, %.lr.ph46.split.split.split.us ]
  %74 = getelementptr inbounds nuw i32, ptr %64, i64 %.042.us63
  %75 = load i32, ptr %74, align 4, !tbaa !16
  %76 = icmp sgt i32 %75, %.03141.us64
  %spec.select.us66 = select i1 %76, i64 %.042.us63, i64 %.03240.us65
  %spec.select39.us67 = call i32 @llvm.smax.i32(i32 %75, i32 %.03141.us64)
  %77 = add nuw i64 %.042.us63, 1
  %exitcond89.not = icmp eq i64 %77, %62
  br i1 %exitcond89.not, label %._crit_edge.us69, label %.lr.ph.us68, !llvm.loop !131

.lr.ph46.split.split.split:                       ; preds = %.lr.ph46.split.split, %91
  %.03044 = phi i64 [ %93, %91 ], [ %16, %.lr.ph46.split.split ]
  %78 = load i64, ptr %19, align 8, !tbaa !116
  %79 = mul i64 %78, %.03044
  %80 = getelementptr inbounds nuw i32, ptr %18, i64 %79
  %.not77 = icmp eq i64 %78, 0
  br i1 %.not77, label %._crit_edge.thread, label %.lr.ph

._crit_edge.thread:                               ; preds = %.lr.ph46.split.split.split
  %81 = getelementptr inbounds i32, ptr %20, i64 %.03044
  store i32 -2147483648, ptr %81, align 4, !tbaa !16
  br label %91

._crit_edge:                                      ; preds = %.lr.ph
  %82 = getelementptr inbounds i32, ptr %20, i64 %.03044
  store i32 %spec.select39, ptr %82, align 4, !tbaa !16
  %.not78 = icmp eq i64 %spec.select, -1
  br i1 %.not78, label %91, label %87

.lr.ph:                                           ; preds = %.lr.ph46.split.split.split, %.lr.ph
  %.042 = phi i64 [ %86, %.lr.ph ], [ 0, %.lr.ph46.split.split.split ]
  %.03141 = phi i32 [ %spec.select39, %.lr.ph ], [ -2147483648, %.lr.ph46.split.split.split ]
  %.03240 = phi i64 [ %spec.select, %.lr.ph ], [ -1, %.lr.ph46.split.split.split ]
  %83 = getelementptr inbounds nuw i32, ptr %80, i64 %.042
  %84 = load i32, ptr %83, align 4, !tbaa !16
  %85 = icmp sgt i32 %84, %.03141
  %spec.select = select i1 %85, i64 %.042, i64 %.03240
  %spec.select39 = call i32 @llvm.smax.i32(i32 %84, i32 %.03141)
  %86 = add nuw i64 %.042, 1
  %exitcond.not = icmp eq i64 %86, %78
  br i1 %exitcond.not, label %._crit_edge, label %.lr.ph, !llvm.loop !131

87:                                               ; preds = %._crit_edge
  %88 = getelementptr i64, ptr %.fr73, i64 %79
  %89 = getelementptr i64, ptr %88, i64 %spec.select
  %90 = load i64, ptr %89, align 8, !tbaa !15
  br label %91

91:                                               ; preds = %._crit_edge, %._crit_edge.thread, %87
  %.sink93 = phi i64 [ %90, %87 ], [ -1, %._crit_edge.thread ], [ -1, %._crit_edge ]
  %92 = getelementptr inbounds i64, ptr %21, i64 %.03044
  store i64 %.sink93, ptr %92, align 8, !tbaa !15
  %93 = add nuw i64 %.03044, 1
  %94 = load i64, ptr %7, align 8, !tbaa !15
  %95 = add i64 %94, 1
  %96 = icmp ult i64 %93, %95
  br i1 %96, label %.lr.ph46.split.split.split, label %._crit_edge47

._crit_edge47:                                    ; preds = %91, %._crit_edge.us69.thread, %._crit_edge.us57, %._crit_edge.us57.us, %._crit_edge.us.us, %.lr.ph46.split.us.split.split, %.lr.ph46.split.us.split, %.lr.ph46.split.us.split.us, %11
  call void @__kmpc_for_static_fini(ptr nonnull @1, i32 %13)
  call void @llvm.lifetime.end.p0(i64 4, ptr nonnull %9) #3
  call void @llvm.lifetime.end.p0(i64 8, ptr nonnull %8) #3
  call void @llvm.lifetime.end.p0(i64 8, ptr nonnull %7) #3
  call void @llvm.lifetime.end.p0(i64 8, ptr nonnull %6) #3
  br label %97

97:                                               ; preds = %._crit_edge47, %5
  ret void
}